target datalayout = "e-m:e-p270:32:32-p271:32:32-p272:64:64-i64:64-i128:128-f80:128-n8:16:32:64-S128"
target triple = "x86_64-pc-linux-gnu"

%struct.WOLFSSL = type <{ ptr, ptr, ptr, ptr, [48 x i8], [48 x i8], ptr, ptr, ptr, ptr, ptr, ptr, ptr, ptr, ptr, ptr, ptr, ptr, ptr, i32, [4 x i8], %struct.WOLFSSL_CIPHER, ptr, %struct.Ciphers, %struct.Ciphers, [8 x i8], %struct.Buffers, ptr, ptr, %struct.WOLFSSL_ALERT_HISTORY, %struct.WOLFSSL_ALERT, i32, i32, i32, i32, i32, i32, i32, i16, [2 x i8], i32, i8, %struct.RecordLayerHeader, %struct.MsgsReceived, %struct.ProtocolVersion, %struct.ProtocolVersion, %struct.CipherSpecs, [2 x i8], %struct.Keys, %struct.Options, ptr, i8, i8, i16, [10 x i16], i8, i8, i16, i16, [38 x i8], i32, i32, [4 x i8], ptr, i8, i8, [6 x i8], ptr, ptr, i16, i8, i8, i32, i8, [3 x i8], i32, %struct.OneTimeAuth, ptr }>
%struct.WOLFSSL_CIPHER = type { i8, i8, ptr }
%struct.Ciphers = type { ptr, ptr, ptr, ptr, i8, i8 }
%struct.Buffers = type { %struct.bufferStatic, %struct.bufferStatic, %struct.WOLFSSL_BUFFER_INFO, %struct.WOLFSSL_BUFFER_INFO, %struct.WOLFSSL_BUFFER_INFO, %struct.WOLFSSL_BUFFER_INFO, i32, i32, i8, i8, i8, i8, %struct.WOLFSSL_BUFFER_INFO, %struct.WOLFSSL_BUFFER_INFO, %struct.WOLFSSL_BUFFER_INFO, %struct.WOLFSSL_BUFFER_INFO, ptr, ptr, ptr, i8, i8, i32, i32, ptr, i32, [1 x ptr] }
%struct.bufferStatic = type { [5 x i8], ptr, i32, i32, i32, i8, i8 }
%struct.WOLFSSL_BUFFER_INFO = type { ptr, i32 }
%struct.WOLFSSL_ALERT_HISTORY = type { %struct.WOLFSSL_ALERT, %struct.WOLFSSL_ALERT }
%struct.WOLFSSL_ALERT = type { i32, i32 }
%struct.RecordLayerHeader = type { i8, i8, i8, [2 x i8] }
%struct.MsgsReceived = type { i32 }
%struct.ProtocolVersion = type { i8, i8 }
%struct.CipherSpecs = type { i16, i16, i16, i16, i8, i8, i8, i8, i8, i8, i8, i8 }
%struct.Keys = type { [64 x i8], [64 x i8], [32 x i8], [32 x i8], [16 x i8], [16 x i8], [8 x i8], [12 x i8], [12 x i8], i32, i32, i32, i32, i32, i32, i8, i8, i8, i8 }
%struct.Options = type { i64, i64, i8, i8, i8, i8, i8, i8, i8, i8, i8, i8, i8, i8, i8, i8, i8, i8, i8, i8, i8, i8, i8, i16, i16, i16, i16, i16, i8 }
%struct.OneTimeAuth = type { ptr, i8 }

; Function Attrs: inlinehint nounwind uwtable
define internal i32 @GrowOutputBuffer(ptr noundef %0, i32 noundef %1) #5 {
  %3 = alloca i32, align 4
  %4 = alloca ptr, align 8
  %5 = alloca i32, align 4
  %6 = alloca ptr, align 8
  %7 = alloca i8, align 1
  %8 = alloca i32, align 4
  %9 = alloca i32, align 4
  %10 = alloca ptr, align 8
  store ptr %0, ptr %4, align 8, !tbaa !3
  store i32 %1, ptr %5, align 4, !tbaa !47
  call void @llvm.lifetime.start.p0(i64 8, ptr %6) #9
  call void @llvm.lifetime.start.p0(i64 1, ptr %7) #9
  store i8 0, ptr %7, align 1, !tbaa !54
  call void @llvm.lifetime.start.p0(i64 4, ptr %8) #9
  %11 = load ptr, ptr %4, align 8, !tbaa !3
  %12 = getelementptr inbounds nuw %struct.WOLFSSL, ptr %11, i32 0, i32 26
  %13 = getelementptr inbounds nuw %struct.Buffers, ptr %12, i32 0, i32 1
  %14 = getelementptr inbounds nuw %struct.bufferStatic, ptr %13, i32 0, i32 2
  %15 = load i32, ptr %14, align 16, !tbaa !273
  %16 = load ptr, ptr %4, align 8, !tbaa !3
  %17 = getelementptr inbounds nuw %struct.WOLFSSL, ptr %16, i32 0, i32 26
  %18 = getelementptr inbounds nuw %struct.Buffers, ptr %17, i32 0, i32 1
  %19 = getelementptr inbounds nuw %struct.bufferStatic, ptr %18, i32 0, i32 3
  %20 = load i32, ptr %19, align 4, !tbaa !274
  %21 = sub i32 -1, %20
  %22 = icmp ule i32 %15, %21
  br i1 %22, label %23, label %35

23:                                               ; preds = %2
  %24 = load ptr, ptr %4, align 8, !tbaa !3
  %25 = getelementptr inbounds nuw %struct.WOLFSSL, ptr %24, i32 0, i32 26
  %26 = getelementptr inbounds nuw %struct.Buffers, ptr %25, i32 0, i32 1
  %27 = getelementptr inbounds nuw %struct.bufferStatic, ptr %26, i32 0, i32 3
  %28 = load i32, ptr %27, align 4, !tbaa !274
  %29 = load ptr, ptr %4, align 8, !tbaa !3
  %30 = getelementptr inbounds nuw %struct.WOLFSSL, ptr %29, i32 0, i32 26
  %31 = getelementptr inbounds nuw %struct.Buffers, ptr %30, i32 0, i32 1
  %32 = getelementptr inbounds nuw %struct.bufferStatic, ptr %31, i32 0, i32 2
  %33 = load i32, ptr %32, align 16, !tbaa !273
  %34 = add i32 %28, %33
  store i32 %34, ptr %8, align 4, !tbaa !47
  br i1 true, label %37, label %36

35:                                               ; preds = %2
  store i32 -1, ptr %8, align 4, !tbaa !47
  br i1 false, label %37, label %36

36:                                               ; preds = %35, %23
  store i32 -132, ptr %3, align 4
  store i32 1, ptr %9, align 4
  br label %144

37:                                               ; preds = %35, %23
  %38 = load i32, ptr %5, align 4, !tbaa !47
  %39 = load i32, ptr %8, align 4, !tbaa !47
  %40 = sub i32 -1, %39
  %41 = icmp ule i32 %38, %40
  br i1 %41, label %42, label %46

42:                                               ; preds = %37
  %43 = load i32, ptr %8, align 4, !tbaa !47
  %44 = load i32, ptr %5, align 4, !tbaa !47
  %45 = add i32 %43, %44
  store i32 %45, ptr %8, align 4, !tbaa !47
  br i1 true, label %48, label %47

46:                                               ; preds = %37
  store i32 -1, ptr %8, align 4, !tbaa !47
  br i1 false, label %48, label %47

47:                                               ; preds = %46, %42
  store i32 -132, ptr %3, align 4
  store i32 1, ptr %9, align 4
  br label %144

48:                                               ; preds = %46, %42
  %49 = load i32, ptr %8, align 4, !tbaa !47
  %50 = sub i32 -1, %49
  %51 = icmp ule i32 0, %50
  br i1 %51, label %52, label %55

52:                                               ; preds = %48
  %53 = load i32, ptr %8, align 4, !tbaa !47
  %54 = add i32 %53, 0
  store i32 %54, ptr %8, align 4, !tbaa !47
  br i1 true, label %57, label %56

55:                                               ; preds = %48
  store i32 -1, ptr %8, align 4, !tbaa !47
  br i1 false, label %57, label %56

56:                                               ; preds = %55, %52
  store i32 -132, ptr %3, align 4
  store i32 1, ptr %9, align 4
  br label %144

57:                                               ; preds = %55, %52
  %58 = load i32, ptr %8, align 4, !tbaa !47
  %59 = zext i32 %58 to i64
  %60 = call ptr @wolfSSL_Malloc(i64 noundef %59)
  store ptr %60, ptr %6, align 8, !tbaa !89
  %61 = load i32, ptr %8, align 4, !tbaa !47
  %62 = sub i32 %61, 0
  store i32 %62, ptr %8, align 4, !tbaa !47
  br label %63

63:                                               ; preds = %57
  br label %64

64:                                               ; preds = %63
  br label %65

65:                                               ; preds = %64
  %66 = load ptr, ptr %6, align 8, !tbaa !89
  %67 = icmp eq ptr %66, null
  br i1 %67, label %68, label %69

68:                                               ; preds = %65
  store i32 -125, ptr %3, align 4
  store i32 1, ptr %9, align 4
  br label %144

69:                                               ; preds = %65
  %70 = load ptr, ptr %4, align 8, !tbaa !3
  %71 = getelementptr inbounds nuw %struct.WOLFSSL, ptr %70, i32 0, i32 26
  %72 = getelementptr inbounds nuw %struct.Buffers, ptr %71, i32 0, i32 1
  %73 = getelementptr inbounds nuw %struct.bufferStatic, ptr %72, i32 0, i32 2
  %74 = load i32, ptr %73, align 16, !tbaa !273
  %75 = icmp ne i32 %74, 0
  br i1 %75, label %76, label %95

76:                                               ; preds = %69
  %77 = load ptr, ptr %6, align 8, !tbaa !89
  %78 = load ptr, ptr %4, align 8, !tbaa !3
  %79 = getelementptr inbounds nuw %struct.WOLFSSL, ptr %78, i32 0, i32 26
  %80 = getelementptr inbounds nuw %struct.Buffers, ptr %79, i32 0, i32 1
  %81 = getelementptr inbounds nuw %struct.bufferStatic, ptr %80, i32 0, i32 1
  %82 = load ptr, ptr %81, align 8, !tbaa !210
  %83 = load ptr, ptr %4, align 8, !tbaa !3
  %84 = getelementptr inbounds nuw %struct.WOLFSSL, ptr %83, i32 0, i32 26
  %85 = getelementptr inbounds nuw %struct.Buffers, ptr %84, i32 0, i32 1
  %86 = getelementptr inbounds nuw %struct.bufferStatic, ptr %85, i32 0, i32 3
  %87 = load i32, ptr %86, align 4, !tbaa !274
  %88 = load ptr, ptr %4, align 8, !tbaa !3
  %89 = getelementptr inbounds nuw %struct.WOLFSSL, ptr %88, i32 0, i32 26
  %90 = getelementptr inbounds nuw %struct.Buffers, ptr %89, i32 0, i32 1
  %91 = getelementptr inbounds nuw %struct.bufferStatic, ptr %90, i32 0, i32 2
  %92 = load i32, ptr %91, align 16, !tbaa !273
  %93 = add i32 %87, %92
  %94 = zext i32 %93 to i64
  call void @llvm.memcpy.p0.p0.i64(ptr align 1 %77, ptr align 1 %82, i64 %94, i1 false)
  br label %95

95:                                               ; preds = %76, %69
  %96 = load ptr, ptr %4, align 8, !tbaa !3
  %97 = getelementptr inbounds nuw %struct.WOLFSSL, ptr %96, i32 0, i32 26
  %98 = getelementptr inbounds nuw %struct.Buffers, ptr %97, i32 0, i32 1
  %99 = getelementptr inbounds nuw %struct.bufferStatic, ptr %98, i32 0, i32 5
  %100 = load i8, ptr %99, align 4, !tbaa !258
  %101 = icmp ne i8 %100, 0
  br i1 %101, label %102, label %125

102:                                              ; preds = %95
  br label %103

103:                                              ; preds = %102
  call void @llvm.lifetime.start.p0(i64 8, ptr %10) #9
  %104 = load ptr, ptr %4, align 8, !tbaa !3
  %105 = getelementptr inbounds nuw %struct.WOLFSSL, ptr %104, i32 0, i32 26
  %106 = getelementptr inbounds nuw %struct.Buffers, ptr %105, i32 0, i32 1
  %107 = getelementptr inbounds nuw %struct.bufferStatic, ptr %106, i32 0, i32 1
  %108 = load ptr, ptr %107, align 8, !tbaa !210
  %109 = load ptr, ptr %4, align 8, !tbaa !3
  %110 = getelementptr inbounds nuw %struct.WOLFSSL, ptr %109, i32 0, i32 26
  %111 = getelementptr inbounds nuw %struct.Buffers, ptr %110, i32 0, i32 1
  %112 = getelementptr inbounds nuw %struct.bufferStatic, ptr %111, i32 0, i32 6
  %113 = load i8, ptr %112, align 1, !tbaa !267
  %114 = zext i8 %113 to i32
  %115 = sext i32 %114 to i64
  %116 = sub i64 0, %115
  %117 = getelementptr inbounds i8, ptr %108, i64 %116
  store ptr %117, ptr %10, align 8, !tbaa !59
  %118 = load ptr, ptr %10, align 8, !tbaa !59
  %119 = icmp ne ptr %118, null
  br i1 %119, label %120, label %122

120:                                              ; preds = %103
  %121 = load ptr, ptr %10, align 8, !tbaa !59
  call void @wolfSSL_Free(ptr noundef %121)
  br label %122

122:                                              ; preds = %120, %103
  call void @llvm.lifetime.end.p0(i64 8, ptr %10) #9
  br label %123

123:                                              ; preds = %122
  br label %124

124:                                              ; preds = %123
  br label %125

125:                                              ; preds = %124, %95
  %126 = load ptr, ptr %4, align 8, !tbaa !3
  %127 = getelementptr inbounds nuw %struct.WOLFSSL, ptr %126, i32 0, i32 26
  %128 = getelementptr inbounds nuw %struct.Buffers, ptr %127, i32 0, i32 1
  %129 = getelementptr inbounds nuw %struct.bufferStatic, ptr %128, i32 0, i32 5
  store i8 1, ptr %129, align 4, !tbaa !258
  %130 = load ptr, ptr %4, align 8, !tbaa !3
  %131 = getelementptr inbounds nuw %struct.WOLFSSL, ptr %130, i32 0, i32 26
  %132 = getelementptr inbounds nuw %struct.Buffers, ptr %131, i32 0, i32 1
  %133 = getelementptr inbounds nuw %struct.bufferStatic, ptr %132, i32 0, i32 6
  store i8 0, ptr %133, align 1, !tbaa !267
  %134 = load ptr, ptr %6, align 8, !tbaa !89
  %135 = load ptr, ptr %4, align 8, !tbaa !3
  %136 = getelementptr inbounds nuw %struct.WOLFSSL, ptr %135, i32 0, i32 26
  %137 = getelementptr inbounds nuw %struct.Buffers, ptr %136, i32 0, i32 1
  %138 = getelementptr inbounds nuw %struct.bufferStatic, ptr %137, i32 0, i32 1
  store ptr %134, ptr %138, align 8, !tbaa !210
  %139 = load i32, ptr %8, align 4, !tbaa !47
  %140 = load ptr, ptr %4, align 8, !tbaa !3
  %141 = getelementptr inbounds nuw %struct.WOLFSSL, ptr %140, i32 0, i32 26
  %142 = getelementptr inbounds nuw %struct.Buffers, ptr %141, i32 0, i32 1
  %143 = getelementptr inbounds nuw %struct.bufferStatic, ptr %142, i32 0, i32 4
  store i32 %139, ptr %143, align 8, !tbaa !211
  store i32 0, ptr %3, align 4
  store i32 1, ptr %9, align 4
  br label %144

144:                                              ; preds = %125, %68, %56, %47, %36
  call void @llvm.lifetime.end.p0(i64 4, ptr %8) #9
  call void @llvm.lifetime.end.p0(i64 1, ptr %7) #9
  call void @llvm.lifetime.end.p0(i64 8, ptr %6) #9
  %145 = load i32, ptr %3, align 4
  ret i32 %145
}

; Function Attrs: nounwind uwtable
define i32 @CheckAvailableSize(ptr noundef %0, i32 noundef %1) #0 {
  %3 = alloca i32, align 4
  %4 = alloca ptr, align 8
  %5 = alloca i32, align 4
  store ptr %0, ptr %4, align 8, !tbaa !3
  store i32 %1, ptr %5, align 4, !tbaa !47
  %6 = load i32, ptr %5, align 4, !tbaa !47
  %7 = icmp slt i32 %6, 0
  br i1 %7, label %8, label %11

8:                                                ; preds = %2
  br label %9

9:                                                ; preds = %8
  br label %10

10:                                               ; preds = %9
  store i32 -173, ptr %3, align 4
  br label %39

11:                                               ; preds = %2
  %12 = load ptr, ptr %4, align 8, !tbaa !3
  %13 = getelementptr inbounds nuw %struct.WOLFSSL, ptr %12, i32 0, i32 26
  %14 = getelementptr inbounds nuw %struct.Buffers, ptr %13, i32 0, i32 1
  %15 = getelementptr inbounds nuw %struct.bufferStatic, ptr %14, i32 0, i32 4
  %16 = load i32, ptr %15, align 8, !tbaa !211
  %17 = load ptr, ptr %4, align 8, !tbaa !3
  %18 = getelementptr inbounds nuw %struct.WOLFSSL, ptr %17, i32 0, i32 26
  %19 = getelementptr inbounds nuw %struct.Buffers, ptr %18, i32 0, i32 1
  %20 = getelementptr inbounds nuw %struct.bufferStatic, ptr %19, i32 0, i32 2
  %21 = load i32, ptr %20, align 16, !tbaa !273
  %22 = sub i32 %16, %21
  %23 = load ptr, ptr %4, align 8, !tbaa !3
  %24 = getelementptr inbounds nuw %struct.WOLFSSL, ptr %23, i32 0, i32 26
  %25 = getelementptr inbounds nuw %struct.Buffers, ptr %24, i32 0, i32 1
  %26 = getelementptr inbounds nuw %struct.bufferStatic, ptr %25, i32 0, i32 3
  %27 = load i32, ptr %26, align 4, !tbaa !274
  %28 = sub i32 %22, %27
  %29 = load i32, ptr %5, align 4, !tbaa !47
  %30 = icmp ult i32 %28, %29
  br i1 %30, label %31, label %38

31:                                               ; preds = %11
  %32 = load ptr, ptr %4, align 8, !tbaa !3
  %33 = load i32, ptr %5, align 4, !tbaa !47
  %34 = call i32 @GrowOutputBuffer(ptr noundef %32, i32 noundef %33)
  %35 = icmp slt i32 %34, 0
  br i1 %35, label %36, label %37

36:                                               ; preds = %31
  store i32 -125, ptr %3, align 4
  br label %39

37:                                               ; preds = %31
  br label %38

38:                                               ; preds = %37, %11
  store i32 0, ptr %3, align 4
  br label %39

39:                                               ; preds = %38, %36, %10
  %40 = load i32, ptr %3, align 4
  ret i32 %40
}