; Function Attrs: nounwind uwtable
define range(i32 -173, 1) i32 @CheckAvailableSize(ptr noundef captures(none) %0, i32 noundef %1) local_unnamed_addr #5 {
  %3 = icmp slt i32 %1, 0
  br i1 %3, label %GrowOutputBuffer.exit.thread, label %4

4:                                                ; preds = %2
  %5 = getelementptr inbounds nuw i8, ptr %0, i64 408
  %6 = load i32, ptr %5, align 8, !tbaa !174
  %7 = getelementptr inbounds nuw i8, ptr %0, i64 400
  %8 = load i32, ptr %7, align 16, !tbaa !226
  %9 = getelementptr inbounds nuw i8, ptr %0, i64 404
  %10 = load i32, ptr %9, align 4, !tbaa !227
  %11 = add i32 %10, %8
  %12 = sub i32 %6, %11
  %13 = icmp ult i32 %12, %1
  br i1 %13, label %14, label %GrowOutputBuffer.exit.thread

14:                                               ; preds = %4
  %15 = xor i32 %10, -1
  %.not.i = icmp ugt i32 %8, %15
  %16 = xor i32 %11, -1
  %.not34.i = icmp ugt i32 %1, %16
  %or.cond = or i1 %.not.i, %.not34.i
  br i1 %or.cond, label %GrowOutputBuffer.exit.thread, label %17

17:                                               ; preds = %14
  %18 = add i32 %11, %1
  %19 = zext i32 %18 to i64
  %20 = tail call ptr @wolfSSL_Malloc(i64 noundef %19) #26
  %21 = icmp eq ptr %20, null
  br i1 %21, label %GrowOutputBuffer.exit.thread, label %22

22:                                               ; preds = %17
  %23 = load i32, ptr %7, align 16, !tbaa !226
  %.not35.i = icmp eq i32 %23, 0
  br i1 %.not35.i, label %30, label %24

24:                                               ; preds = %22
  %25 = getelementptr inbounds nuw i8, ptr %0, i64 392
  %26 = load ptr, ptr %25, align 8, !tbaa !173
  %27 = load i32, ptr %9, align 4, !tbaa !227
  %28 = add i32 %27, %23
  %29 = zext i32 %28 to i64
  tail call void @llvm.memcpy.p0.p0.i64(ptr nonnull align 1 %20, ptr align 1 %26, i64 %29, i1 false)
  br label %30

30:                                               ; preds = %24, %22
  %31 = getelementptr inbounds nuw i8, ptr %0, i64 412
  %32 = load i8, ptr %31, align 4, !tbaa !218
  %.not36.i = icmp eq i8 %32, 0
  br i1 %.not36.i, label %GrowOutputBuffer.exit, label %33

33:                                               ; preds = %30
  %34 = getelementptr inbounds nuw i8, ptr %0, i64 392
  %35 = load ptr, ptr %34, align 8, !tbaa !173
  %.not37.i = icmp eq ptr %35, null
  br i1 %.not37.i, label %GrowOutputBuffer.exit, label %36

36:                                               ; preds = %33
  %37 = getelementptr inbounds nuw i8, ptr %0, i64 413
  %38 = load i8, ptr %37, align 1, !tbaa !219
  %39 = zext i8 %38 to i64
  %40 = sub nsw i64 0, %39
  %41 = getelementptr inbounds i8, ptr %35, i64 %40
  tail call void @wolfSSL_Free(ptr noundef nonnull %41) #26
  br label %GrowOutputBuffer.exit

GrowOutputBuffer.exit:                            ; preds = %30, %33, %36
  store i8 1, ptr %31, align 4, !tbaa !218
  %42 = getelementptr inbounds nuw i8, ptr %0, i64 413
  store i8 0, ptr %42, align 1, !tbaa !219
  %43 = getelementptr inbounds nuw i8, ptr %0, i64 392
  store ptr %20, ptr %43, align 8, !tbaa !173
  store i32 %18, ptr %5, align 8, !tbaa !174
  br label %GrowOutputBuffer.exit.thread

GrowOutputBuffer.exit.thread:                     ; preds = %17, %14, %4, %GrowOutputBuffer.exit, %2
  %.0 = phi i32 [ -173, %2 ], [ 0, %GrowOutputBuffer.exit ], [ 0, %4 ], [ -125, %14 ], [ -125, %17 ]
  ret i32 %.0
}